; Function Attrs: mustprogress uwtable
define void @_Z27grpc_set_socket_nonblockingii(ptr noalias nocapture writeonly sret(%"class.absl::lts_20230802::Status") align 8 %agg.result, i32 noundef %fd, i32 noundef %non_blocking) local_unnamed_addr #3 personality ptr @__gxx_personality_v0 {
entry:
  %agg.tmp = alloca %"class.absl::lts_20230802::Status", align 8
  %ref.tmp = alloca %"class.grpc_core::DebugLocation", align 1
  %agg.tmp7 = alloca %"class.absl::lts_20230802::Status", align 8
  %ref.tmp8 = alloca %"class.grpc_core::DebugLocation", align 1
  %call = tail call i32 (i32, i32, ...) @fcntl(i32 noundef %fd, i32 noundef 3, i32 noundef 0)
  %cmp = icmp slt i32 %call, 0
  br i1 %cmp, label %if.then, label %if.end

if.then:                                          ; preds = %entry
  %call1 = tail call ptr @__errno_location() #17
  %0 = load i32, ptr %call1, align 4
  call void @_Z13grpc_os_errorRKN9grpc_core13DebugLocationEiPKc(ptr nonnull sret(%"class.absl::lts_20230802::Status") align 8 %agg.tmp, ptr noundef nonnull align 1 dereferenceable(1) %ref.tmp, i32 noundef %0, ptr noundef nonnull @.str.2)
  %1 = load i64, ptr %agg.tmp, align 8, !noalias !7
  %cmp.i.i = icmp eq i64 %1, 0
  br i1 %cmp.i.i, label %if.then.i, label %return

if.then.i:                                        ; preds = %if.then
  invoke void @gpr_assertion_failed(ptr noundef nonnull @.str.29, i32 noundef 78, ptr noundef nonnull @.str.30) #18
          to label %.noexc unwind label %lpad

.noexc:                                           ; preds = %if.then.i
  unreachable

lpad:                                             ; preds = %if.then.i
  %2 = landingpad { ptr, i32 }
          cleanup
  br label %eh.resume

if.end:                                           ; preds = %entry
  %tobool.not = icmp eq i32 %non_blocking, 0
  %or = or i32 %call, 2048
  %and = and i32 %call, 2147481599
  %oldflags.0 = select i1 %tobool.not, i32 %and, i32 %or
  %call4 = tail call i32 (i32, i32, ...) @fcntl(i32 noundef %fd, i32 noundef 4, i32 noundef %oldflags.0)
  %cmp5.not = icmp eq i32 %call4, 0
  br i1 %cmp5.not, label %return, label %if.then6

if.then6:                                         ; preds = %if.end
  %call9 = tail call ptr @__errno_location() #17
  %3 = load i32, ptr %call9, align 4
  call void @_Z13grpc_os_errorRKN9grpc_core13DebugLocationEiPKc(ptr nonnull sret(%"class.absl::lts_20230802::Status") align 8 %agg.tmp7, ptr noundef nonnull align 1 dereferenceable(1) %ref.tmp8, i32 noundef %3, ptr noundef nonnull @.str.2)
  %4 = load i64, ptr %agg.tmp7, align 8, !noalias !10
  %cmp.i.i6 = icmp eq i64 %4, 0
  br i1 %cmp.i.i6, label %if.then.i7, label %return

if.then.i7:                                       ; preds = %if.then6
  invoke void @gpr_assertion_failed(ptr noundef nonnull @.str.29, i32 noundef 78, ptr noundef nonnull @.str.30) #18
          to label %.noexc8 unwind label %lpad10

.noexc8:                                          ; preds = %if.then.i7
  unreachable

lpad10:                                           ; preds = %if.then.i7
  %5 = landingpad { ptr, i32 }
          cleanup
  br label %eh.resume

return:                                           ; preds = %if.end, %if.then6, %if.then
  %.sink = phi i64 [ %1, %if.then ], [ %4, %if.then6 ], [ 0, %if.end ]
  store i64 %.sink, ptr %agg.result, align 8
  ret void

eh.resume:                                        ; preds = %lpad10, %lpad
  %agg.tmp7.sink = phi ptr [ %agg.tmp7, %lpad10 ], [ %agg.tmp, %lpad ]
  %.pn = phi { ptr, i32 } [ %5, %lpad10 ], [ %2, %lpad ]
  call void @_ZN4absl12lts_202308026StatusD2Ev(ptr noundef nonnull align 8 dereferenceable(8) %agg.tmp7.sink) #16
  resume { ptr, i32 } %.pn
}